; Function Attrs: mustprogress uwtable
define internal noundef double @_ZN12_GLOBAL__N_113is_lira_probeclERK4goal(ptr nocapture nonnull readnone align 8 %this, ptr noundef nonnull align 8 dereferenceable(124) %g) unnamed_addr #3 align 2 {
entry:
  %p.i = alloca %"struct.(anonymous namespace)::is_non_nira_functor", align 8
  call void @llvm.lifetime.start.p0(i64 32, ptr nonnull %p.i)
  %0 = load ptr, ptr %g, align 8
  store ptr %0, ptr %p.i, align 8
  %u.i.i = getelementptr inbounds i8, ptr %p.i, i64 8
  call void @_ZN10arith_utilC1ER11ast_manager(ptr noundef nonnull align 8 dereferenceable(16) %u.i.i, ptr noundef nonnull align 8 dereferenceable(976) %0)
  %m_int.i.i = getelementptr inbounds i8, ptr %p.i, i64 24
  store i32 16843009, ptr %m_int.i.i, align 8
  %call1.i = call fastcc noundef zeroext i1 @_Z4testIN12_GLOBAL__N_119is_non_nira_functorEEbRK4goalRT_(ptr noundef nonnull align 8 dereferenceable(124) %g, ptr noundef nonnull align 8 dereferenceable(28) %p.i)
  call void @llvm.lifetime.end.p0(i64 32, ptr nonnull %p.i)
  %cond.i = select i1 %call1.i, double 0.000000e+00, double 1.000000e+00
  ret double %cond.i
}